target datalayout = "e-m:e-p270:32:32-p271:32:32-p272:64:64-i64:64-i128:128-f80:128-n8:16:32:64-S128"
target triple = "x86_64-pc-linux-gnu"

%"struct.Luau::CodeGen::X64::RegisterX64" = type { i8 }
%"class.Luau::CodeGen::X64::AssemblyBuilderX64" = type <{ %"class.std::vector", %"class.std::vector", %"class.std::__cxx11::basic_string", i8, [3 x i8], i32, i32, [4 x i8], %"class.std::vector.3", %"class.std::vector.8", %"class.Luau::DenseHashMap", %"class.Luau::DenseHashMap.13", i8, [7 x i8], i64, ptr, ptr, i32, [4 x i8] }>
%"class.std::vector" = type { %"struct.std::_Vector_base" }
%"struct.std::_Vector_base" = type { %"struct.std::_Vector_base<unsigned char, std::allocator<unsigned char>>::_Vector_impl" }
%"struct.std::_Vector_base<unsigned char, std::allocator<unsigned char>>::_Vector_impl" = type { %"struct.std::_Vector_base<unsigned char, std::allocator<unsigned char>>::_Vector_impl_data" }
%"struct.std::_Vector_base<unsigned char, std::allocator<unsigned char>>::_Vector_impl_data" = type { ptr, ptr, ptr }
%"class.std::__cxx11::basic_string" = type { %"struct.std::__cxx11::basic_string<char>::_Alloc_hider", i64, %union.anon }
%"struct.std::__cxx11::basic_string<char>::_Alloc_hider" = type { ptr }
%union.anon = type { i64, [8 x i8] }
%"class.std::vector.3" = type { %"struct.std::_Vector_base.4" }
%"struct.std::_Vector_base.4" = type { %"struct.std::_Vector_base<Luau::CodeGen::Label, std::allocator<Luau::CodeGen::Label>>::_Vector_impl" }
%"struct.std::_Vector_base<Luau::CodeGen::Label, std::allocator<Luau::CodeGen::Label>>::_Vector_impl" = type { %"struct.std::_Vector_base<Luau::CodeGen::Label, std::allocator<Luau::CodeGen::Label>>::_Vector_impl_data" }
%"struct.std::_Vector_base<Luau::CodeGen::Label, std::allocator<Luau::CodeGen::Label>>::_Vector_impl_data" = type { ptr, ptr, ptr }
%"class.std::vector.8" = type { %"struct.std::_Vector_base.9" }
%"struct.std::_Vector_base.9" = type { %"struct.std::_Vector_base<unsigned int, std::allocator<unsigned int>>::_Vector_impl" }
%"struct.std::_Vector_base<unsigned int, std::allocator<unsigned int>>::_Vector_impl" = type { %"struct.std::_Vector_base<unsigned int, std::allocator<unsigned int>>::_Vector_impl_data" }
%"struct.std::_Vector_base<unsigned int, std::allocator<unsigned int>>::_Vector_impl_data" = type { ptr, ptr, ptr }
%"class.Luau::DenseHashMap" = type { %"class.Luau::detail::DenseHashTable" }
%"class.Luau::detail::DenseHashTable" = type <{ ptr, i64, i64, i32, [4 x i8] }>
%"class.Luau::DenseHashMap.13" = type { %"class.Luau::detail::DenseHashTable.14" }
%"class.Luau::detail::DenseHashTable.14" = type <{ ptr, i64, i64, i64, [8 x i8] }>
%"struct.Luau::CodeGen::X64::OperandX64" = type { i8, %"struct.Luau::CodeGen::X64::RegisterX64", %"struct.Luau::CodeGen::X64::RegisterX64", i8, i32 }

; Function Attrs: mustprogress nounwind uwtable
define dso_local void @_ZN4Luau7CodeGen3X6418AssemblyBuilderX645placeEh(ptr noundef nonnull align 8 dereferenceable(252) %0, i8 noundef zeroext %1) #1 align 2 {
  %3 = alloca ptr, align 8
  %4 = alloca i8, align 1
  store ptr %0, ptr %3, align 8, !tbaa !4
  store i8 %1, ptr %4, align 1, !tbaa !79
  %5 = load ptr, ptr %3, align 8
  %6 = load i8, ptr %4, align 1, !tbaa !79
  %7 = getelementptr inbounds nuw %"class.Luau::CodeGen::X64::AssemblyBuilderX64", ptr %5, i32 0, i32 15
  %8 = load ptr, ptr %7, align 8, !tbaa !52
  %9 = getelementptr inbounds nuw i8, ptr %8, i32 1
  store ptr %9, ptr %7, align 8, !tbaa !52
  store i8 %6, ptr %8, align 1, !tbaa !79
  ret void
}

; Function Attrs: mustprogress uwtable
define dso_local void @_ZN4Luau7CodeGen3X6418AssemblyBuilderX648placeRexENS1_11RegisterX64ENS1_10OperandX64E(ptr noundef nonnull align 8 dereferenceable(252) %0, i8 %1, i64 %2) #0 align 2 {
  %4 = alloca %"struct.Luau::CodeGen::X64::RegisterX64", align 1
  %5 = alloca %"struct.Luau::CodeGen::X64::OperandX64", align 4
  %6 = alloca ptr, align 8
  %7 = alloca i8, align 1
  %8 = getelementptr inbounds nuw %"struct.Luau::CodeGen::X64::RegisterX64", ptr %4, i32 0, i32 0
  store i8 %1, ptr %8, align 1
  store i64 %2, ptr %5, align 4
  store ptr %0, ptr %6, align 8, !tbaa !4
  %9 = load ptr, ptr %6, align 8
  call void @llvm.lifetime.start.p0(i64 1, ptr %7) #17
  %10 = load i8, ptr %4, align 1
  %11 = and i8 %10, 7
  %12 = icmp eq i8 %11, 4
  br i1 %12, label %24, label %13

13:                                               ; preds = %3
  %14 = load i8, ptr %4, align 1
  %15 = and i8 %14, 7
  %16 = icmp eq i8 %15, 1
  br i1 %16, label %17, label %22

17:                                               ; preds = %13
  %18 = load i8, ptr %4, align 1
  %19 = lshr i8 %18, 3
  %20 = zext i8 %19 to i32
  %21 = icmp sge i32 %20, 4
  br label %22

22:                                               ; preds = %17, %13
  %23 = phi i1 [ false, %13 ], [ %21, %17 ]
  br label %24

24:                                               ; preds = %22, %3
  %25 = phi i1 [ true, %3 ], [ %23, %22 ]
  %26 = select i1 %25, i32 8, i32 0
  %27 = trunc i32 %26 to i8
  store i8 %27, ptr %7, align 1, !tbaa !79
  %28 = getelementptr inbounds nuw %"struct.Luau::CodeGen::X64::OperandX64", ptr %5, i32 0, i32 0
  %29 = load i8, ptr %28, align 4, !tbaa !81
  %30 = icmp eq i8 %29, 2
  br i1 %30, label %31, label %41

31:                                               ; preds = %24
  %32 = load i8, ptr %4, align 1
  %33 = lshr i8 %32, 3
  %34 = zext i8 %33 to i32
  %35 = and i32 %34, 8
  %36 = ashr i32 %35, 3
  %37 = load i8, ptr %7, align 1, !tbaa !79
  %38 = zext i8 %37 to i32
  %39 = or i32 %38, %36
  %40 = trunc i32 %39 to i8
  store i8 %40, ptr %7, align 1, !tbaa !79
  br label %65

41:                                               ; preds = %24
  %42 = load i8, ptr %4, align 1
  %43 = lshr i8 %42, 3
  %44 = zext i8 %43 to i32
  %45 = and i32 %44, 8
  %46 = ashr i32 %45, 1
  %47 = getelementptr inbounds nuw %"struct.Luau::CodeGen::X64::OperandX64", ptr %5, i32 0, i32 1
  %48 = load i8, ptr %47, align 1
  %49 = lshr i8 %48, 3
  %50 = zext i8 %49 to i32
  %51 = and i32 %50, 8
  %52 = ashr i32 %51, 2
  %53 = or i32 %46, %52
  %54 = getelementptr inbounds nuw %"struct.Luau::CodeGen::X64::OperandX64", ptr %5, i32 0, i32 2
  %55 = load i8, ptr %54, align 2
  %56 = lshr i8 %55, 3
  %57 = zext i8 %56 to i32
  %58 = and i32 %57, 8
  %59 = ashr i32 %58, 3
  %60 = or i32 %53, %59
  %61 = load i8, ptr %7, align 1, !tbaa !79
  %62 = zext i8 %61 to i32
  %63 = or i32 %62, %60
  %64 = trunc i32 %63 to i8
  store i8 %64, ptr %7, align 1, !tbaa !79
  br label %65

65:                                               ; preds = %41, %31
  %66 = load i8, ptr %7, align 1, !tbaa !79
  %67 = zext i8 %66 to i32
  %68 = icmp ne i32 %67, 0
  br i1 %68, label %69, label %74

69:                                               ; preds = %65
  %70 = load i8, ptr %7, align 1, !tbaa !79
  %71 = zext i8 %70 to i32
  %72 = or i32 %71, 64
  %73 = trunc i32 %72 to i8
  call void @_ZN4Luau7CodeGen3X6418AssemblyBuilderX645placeEh(ptr noundef nonnull align 8 dereferenceable(252) %9, i8 noundef zeroext %73)
  br label %74

74:                                               ; preds = %69, %65
  call void @llvm.lifetime.end.p0(i64 1, ptr %7) #17
  ret void
}