; Function Attrs: mustprogress nofree norecurse nosync nounwind willreturn memory(write, argmem: readwrite, inaccessiblemem: none) uwtable
define dso_local void @_ZN4Luau7CodeGen3X6418AssemblyBuilderX648placeRexENS1_11RegisterX64ENS1_10OperandX64E(ptr noundef nonnull align 8 captures(none) dereferenceable(252) %0, i8 %1, i64 %2) local_unnamed_addr #5 align 2 {
  %4 = and i8 %1, 7
  %5 = icmp eq i8 %4, 4
  %6 = icmp eq i8 %4, 1
  %7 = icmp ugt i8 %1, 31
  %8 = and i1 %7, %6
  %9 = or i1 %5, %8
  %10 = select i1 %9, i32 8, i32 0
  %11 = and i64 %2, 255
  %12 = icmp eq i64 %11, 2
  br i1 %12, label %13, label %18

13:                                               ; preds = %3
  %14 = lshr i8 %1, 6
  %15 = and i8 %14, 1
  %16 = trunc nuw nsw i32 %10 to i8
  %17 = or disjoint i8 %15, %16
  br label %31

18:                                               ; preds = %3
  %19 = lshr i8 %1, 4
  %20 = and i8 %19, 4
  %21 = zext nneg i8 %20 to i32
  %22 = trunc i64 %2 to i32
  %23 = lshr i32 %22, 13
  %24 = and i32 %23, 2
  %25 = or disjoint i32 %24, %21
  %26 = lshr i32 %22, 22
  %27 = and i32 %26, 1
  %28 = or disjoint i32 %25, %27
  %29 = or disjoint i32 %28, %10
  %30 = trunc nuw nsw i32 %29 to i8
  br label %31

31:                                               ; preds = %18, %13
  %.0 = phi i8 [ %17, %13 ], [ %30, %18 ]
  %.not = icmp eq i8 %.0, 0
  br i1 %.not, label %37, label %32

32:                                               ; preds = %31
  %33 = or i8 %.0, 64
  %34 = getelementptr inbounds nuw i8, ptr %0, i64 232
  %35 = load ptr, ptr %34, align 8, !tbaa !51
  %36 = getelementptr inbounds nuw i8, ptr %35, i64 1
  store ptr %36, ptr %34, align 8, !tbaa !51
  store i8 %33, ptr %35, align 1, !tbaa !13
  br label %37

37:                                               ; preds = %32, %31
  ret void
}